; Function Attrs: mustprogress uwtable
define void @_ZN7rocksdb32GetStringFromColumnFamilyOptionsERKNS_13ConfigOptionsERKNS_19ColumnFamilyOptionsEPNSt7__cxx1112basic_stringIcSt11char_traitsIcESaIcEEE(ptr dead_on_unwind noalias writable sret(%"class.rocksdb::Status") align 8 %0, ptr noundef nonnull align 8 dereferenceable(80) %1, ptr noundef nonnull align 8 dereferenceable(832) %2, ptr noundef %3) local_unnamed_addr #1 personality ptr @__gxx_personality_v0 {
  %5 = alloca %"class.std::unique_ptr.34", align 8
  call void @llvm.lifetime.start.p0(i64 8, ptr nonnull %5) #27
  call void @_ZN7rocksdb23CFOptionsAsConfigurableERKNS_19ColumnFamilyOptionsEPKSt13unordered_mapINSt7__cxx1112basic_stringIcSt11char_traitsIcESaIcEEES9_St4hashIS9_ESt8equal_toIS9_ESaISt4pairIKS9_S9_EEE(ptr dead_on_unwind nonnull writable sret(%"class.std::unique_ptr.34") align 8 %5, ptr noundef nonnull align 8 dereferenceable(832) %2, ptr noundef null)
  %6 = load ptr, ptr %5, align 8, !tbaa !91
  invoke void @_ZNK7rocksdb12Configurable15GetOptionStringERKNS_13ConfigOptionsEPNSt7__cxx1112basic_stringIcSt11char_traitsIcESaIcEEE(ptr dead_on_unwind writable sret(%"class.rocksdb::Status") align 8 %0, ptr noundef nonnull align 8 dereferenceable(32) %6, ptr noundef nonnull align 8 dereferenceable(80) %1, ptr noundef %3)
          to label %7 unwind label %12

7:                                                ; preds = %4
  %8 = load ptr, ptr %5, align 8, !tbaa !91
  %.not.i = icmp eq ptr %8, null
  br i1 %.not.i, label %_ZNSt10unique_ptrIN7rocksdb12ConfigurableESt14default_deleteIS1_EED2Ev.exit, label %_ZNKSt14default_deleteIN7rocksdb12ConfigurableEEclEPS1_.exit.i

_ZNKSt14default_deleteIN7rocksdb12ConfigurableEEclEPS1_.exit.i: ; preds = %7
  %9 = load ptr, ptr %8, align 8, !tbaa !85
  %10 = getelementptr inbounds nuw i8, ptr %9, i64 8
  %11 = load ptr, ptr %10, align 8
  call void %11(ptr noundef nonnull align 8 dereferenceable(32) %8) #27
  br label %_ZNSt10unique_ptrIN7rocksdb12ConfigurableESt14default_deleteIS1_EED2Ev.exit

_ZNSt10unique_ptrIN7rocksdb12ConfigurableESt14default_deleteIS1_EED2Ev.exit: ; preds = %7, %_ZNKSt14default_deleteIN7rocksdb12ConfigurableEEclEPS1_.exit.i
  call void @llvm.lifetime.end.p0(i64 8, ptr nonnull %5) #27
  ret void

12:                                               ; preds = %4
  %13 = landingpad { ptr, i32 }
          cleanup
  %14 = load ptr, ptr %5, align 8, !tbaa !91
  %.not.i4 = icmp eq ptr %14, null
  br i1 %.not.i4, label %_ZNSt10unique_ptrIN7rocksdb12ConfigurableESt14default_deleteIS1_EED2Ev.exit6, label %_ZNKSt14default_deleteIN7rocksdb12ConfigurableEEclEPS1_.exit.i5

_ZNKSt14default_deleteIN7rocksdb12ConfigurableEEclEPS1_.exit.i5: ; preds = %12
  %15 = load ptr, ptr %14, align 8, !tbaa !85
  %16 = getelementptr inbounds nuw i8, ptr %15, i64 8
  %17 = load ptr, ptr %16, align 8
  call void %17(ptr noundef nonnull align 8 dereferenceable(32) %14) #27
  br label %_ZNSt10unique_ptrIN7rocksdb12ConfigurableESt14default_deleteIS1_EED2Ev.exit6

_ZNSt10unique_ptrIN7rocksdb12ConfigurableESt14default_deleteIS1_EED2Ev.exit6: ; preds = %12, %_ZNKSt14default_deleteIN7rocksdb12ConfigurableEEclEPS1_.exit.i5
  call void @llvm.lifetime.end.p0(i64 8, ptr nonnull %5) #27
  resume { ptr, i32 } %13
}